target datalayout = "e-m:e-p270:32:32-p271:32:32-p272:64:64-i64:64-i128:128-f80:128-n8:16:32:64-S128"
target triple = "x86_64-pc-linux-gnu"

%"class.gmx::NoseHooverChainsData" = type <{ %"class.gmx::ICheckpointHelperClient", %"class.std::__cxx11::basic_string", %"class.std::vector.20", i32, [4 x i8] }>
%"class.gmx::ICheckpointHelperClient" = type { ptr }
%"class.std::__cxx11::basic_string" = type { %"struct.std::__cxx11::basic_string<char>::_Alloc_hider", i64, %union.anon }
%"struct.std::__cxx11::basic_string<char>::_Alloc_hider" = type { ptr }
%union.anon = type { i64, [8 x i8] }
%"class.std::vector.20" = type { %"struct.std::_Vector_base.21" }
%"struct.std::_Vector_base.21" = type { %"struct.std::_Vector_base<gmx::NoseHooverGroup, std::allocator<gmx::NoseHooverGroup>>::_Vector_impl" }
%"struct.std::_Vector_base<gmx::NoseHooverGroup, std::allocator<gmx::NoseHooverGroup>>::_Vector_impl" = type { %"struct.std::_Vector_base<gmx::NoseHooverGroup, std::allocator<gmx::NoseHooverGroup>>::_Vector_impl_data" }
%"struct.std::_Vector_base<gmx::NoseHooverGroup, std::allocator<gmx::NoseHooverGroup>>::_Vector_impl_data" = type { ptr, ptr, ptr }
%"class.gmx::NoseHooverGroup" = type { float, float, float, i32, float, %"class.std::vector", %"class.std::vector", double, %"class.std::vector", float, float }
%"class.std::vector" = type { %"struct.std::_Vector_base" }
%"struct.std::_Vector_base" = type { %"struct.std::_Vector_base<float, std::allocator<float>>::_Vector_impl" }
%"struct.std::_Vector_base<float, std::allocator<float>>::_Vector_impl" = type { %"struct.std::_Vector_base<float, std::allocator<float>>::_Vector_impl_data" }
%"struct.std::_Vector_base<float, std::allocator<float>>::_Vector_impl_data" = type { ptr, ptr, ptr }

; Function Attrs: mustprogress nounwind uwtable
define linkonce_odr noundef nonnull align 8 dereferenceable(112) ptr @_ZNSt6vectorIN3gmx15NoseHooverGroupESaIS1_EEixEm(ptr noundef nonnull align 8 dereferenceable(24) %0, i64 noundef %1) #0 comdat align 2 {
  %3 = alloca ptr, align 8
  %4 = alloca i64, align 8
  store ptr %0, ptr %3, align 8, !tbaa !32
  store i64 %1, ptr %4, align 8, !tbaa !39
  %5 = load ptr, ptr %3, align 8
  %6 = getelementptr inbounds nuw %"struct.std::_Vector_base.21", ptr %5, i32 0, i32 0
  %7 = getelementptr inbounds nuw %"struct.std::_Vector_base<gmx::NoseHooverGroup, std::allocator<gmx::NoseHooverGroup>>::_Vector_impl_data", ptr %6, i32 0, i32 0
  %8 = load ptr, ptr %7, align 8, !tbaa !131
  %9 = load i64, ptr %4, align 8, !tbaa !39
  %10 = getelementptr inbounds nuw %"class.gmx::NoseHooverGroup", ptr %8, i64 %9
  ret ptr %10
}

; Function Attrs: mustprogress uwtable
define noundef float @_ZN3gmx20NoseHooverChainsData8applyNhcEidf(ptr noundef nonnull align 8 dereferenceable(72) %0, i32 noundef %1, double noundef %2, float noundef %3) #1 align 2 {
  %5 = alloca ptr, align 8
  %6 = alloca i32, align 4
  %7 = alloca double, align 8
  %8 = alloca float, align 4
  store ptr %0, ptr %5, align 8, !tbaa !4
  store i32 %1, ptr %6, align 4, !tbaa !64
  store double %2, ptr %7, align 8, !tbaa !41
  store float %3, ptr %8, align 4, !tbaa !65
  %9 = load ptr, ptr %5, align 8
  %10 = getelementptr inbounds nuw %"class.gmx::NoseHooverChainsData", ptr %9, i32 0, i32 2
  %11 = load i32, ptr %6, align 4, !tbaa !64
  %12 = sext i32 %11 to i64
  %13 = call noundef nonnull align 8 dereferenceable(112) ptr @_ZNSt6vectorIN3gmx15NoseHooverGroupESaIS1_EEixEm(ptr noundef nonnull align 8 dereferenceable(24) %10, i64 noundef %12) #21
  %14 = load float, ptr %8, align 4, !tbaa !65
  %15 = load double, ptr %7, align 8, !tbaa !41
  %16 = fptrunc double %15 to float
  %17 = call noundef float @_ZN3gmx15NoseHooverGroup8applyNhcEff(ptr noundef nonnull align 8 dereferenceable(112) %13, float noundef %14, float noundef %16)
  ret float %17
}