; Function Attrs: mustprogress nounwind uwtable
define noundef float @_ZN3gmx20NoseHooverChainsData8applyNhcEidf(ptr noundef nonnull readonly align 8 captures(none) dereferenceable(72) %0, i32 noundef %1, double noundef %2, float noundef %3) local_unnamed_addr #0 align 2 {
  %5 = getelementptr inbounds nuw i8, ptr %0, i64 40
  %6 = sext i32 %1 to i64
  %7 = load ptr, ptr %5, align 8, !tbaa !107
  %8 = getelementptr inbounds nuw %"class.gmx::NoseHooverGroup", ptr %7, i64 %6
  %9 = fptrunc double %2 to float
  %10 = tail call noundef float @_ZN3gmx15NoseHooverGroup8applyNhcEff(ptr noundef nonnull align 8 dereferenceable(112) %8, float noundef %3, float noundef %9)
  ret float %10
}